; Function Attrs: mustprogress nofree norecurse nosync nounwind willreturn memory(read, inaccessiblemem: none) uwtable
define hidden noundef zeroext i1 @_ZN10polynomial7manager6is_negEPKNS_10polynomialE(ptr nocapture noundef nonnull readonly align 8 dereferenceable(8) %this, ptr nocapture noundef readonly %p) local_unnamed_addr #7 align 2 {
entry:
  %m_size.i.i = getelementptr inbounds i8, ptr %p, i64 8
  %0 = load i32, ptr %m_size.i.i, align 8
  %cmp21.not.i = icmp eq i32 %0, 0
  br i1 %cmp21.not.i, label %_ZN10polynomial7manager3imp6is_negEPKNS_10polynomialE.exit, label %for.body.lr.ph.i

for.body.lr.ph.i:                                 ; preds = %entry
  %1 = load ptr, ptr %this, align 8
  %m_ms.i.i = getelementptr inbounds i8, ptr %p, i64 24
  %2 = load ptr, ptr %m_ms.i.i, align 8
  %m_as.i.i = getelementptr inbounds i8, ptr %p, i64 16
  %m_monomial_manager.i.i.i = getelementptr inbounds i8, ptr %1, i64 464
  %3 = load ptr, ptr %m_monomial_manager.i.i.i, align 8
  %m_unit.i.i.i = getelementptr inbounds i8, ptr %3, i64 112
  %4 = zext i32 %0 to i64
  br label %for.body.i

for.body.i:                                       ; preds = %for.inc.i, %for.body.lr.ph.i
  %indvars.iv = phi i64 [ %indvars.iv.next, %for.inc.i ], [ 0, %for.body.lr.ph.i ]
  %found_unit.022.i = phi i8 [ %spec.select.i, %for.inc.i ], [ 0, %for.body.lr.ph.i ]
  %arrayidx.i.i = getelementptr inbounds ptr, ptr %2, i64 %indvars.iv
  %5 = load ptr, ptr %arrayidx.i.i, align 8
  %m_powers.i.i.i.i = getelementptr inbounds i8, ptr %5, i64 20
  %m_size.i8.i = getelementptr inbounds i8, ptr %5, i64 12
  %6 = load i32, ptr %m_size.i8.i, align 4
  %cmp3.i.i = icmp eq i32 %6, 0
  br i1 %cmp3.i.i, label %if.end.i, label %for.body.preheader.i.i

for.body.preheader.i.i:                           ; preds = %for.body.i
  %7 = zext i32 %6 to i64
  %second.i.i.i16.i = getelementptr inbounds i8, ptr %5, i64 24
  %8 = load i32, ptr %second.i.i.i16.i, align 4
  %rem.i17.i = and i32 %8, 1
  %cmp2.not.i18.i = icmp eq i32 %rem.i17.i, 0
  br i1 %cmp2.not.i18.i, label %for.cond.i.i, label %_ZN10polynomial7manager3imp6is_negEPKNS_10polynomialE.exit

for.cond.i.i:                                     ; preds = %for.body.preheader.i.i, %for.body.i.i
  %indvars.iv.i19.i = phi i64 [ %indvars.iv.next.i.i, %for.body.i.i ], [ 0, %for.body.preheader.i.i ]
  %indvars.iv.next.i.i = add nuw nsw i64 %indvars.iv.i19.i, 1
  %exitcond.i.i = icmp eq i64 %indvars.iv.next.i.i, %7
  br i1 %exitcond.i.i, label %if.end.i, label %for.body.i.i, !llvm.loop !81

for.body.i.i:                                     ; preds = %for.cond.i.i
  %second.i.i.i.i = getelementptr inbounds [0 x %"class.polynomial::power"], ptr %m_powers.i.i.i.i, i64 0, i64 %indvars.iv.next.i.i, i32 0, i32 1
  %9 = load i32, ptr %second.i.i.i.i, align 4
  %rem.i.i = and i32 %9, 1
  %cmp2.not.i.i = icmp eq i32 %rem.i.i, 0
  br i1 %cmp2.not.i.i, label %for.cond.i.i, label %_ZNK10polynomial8monomial15is_power_of_twoEv.exit.i, !llvm.loop !81

_ZNK10polynomial8monomial15is_power_of_twoEv.exit.i: ; preds = %for.body.i.i
  %cmp.i.not.le.i = icmp ult i64 %indvars.iv.next.i.i, %7
  br i1 %cmp.i.not.le.i, label %_ZN10polynomial7manager3imp6is_negEPKNS_10polynomialE.exit, label %if.end.i

if.end.i:                                         ; preds = %for.cond.i.i, %_ZNK10polynomial8monomial15is_power_of_twoEv.exit.i, %for.body.i
  %10 = load ptr, ptr %m_as.i.i, align 8
  %arrayidx.i13.i = getelementptr inbounds %class.mpz, ptr %10, i64 %indvars.iv
  %11 = load i32, ptr %arrayidx.i13.i, align 8
  %cmp.i.i.i = icmp slt i32 %11, 0
  br i1 %cmp.i.i.i, label %for.inc.i, label %_ZN10polynomial7manager3imp6is_negEPKNS_10polynomialE.exit

for.inc.i:                                        ; preds = %if.end.i
  %12 = load ptr, ptr %m_unit.i.i.i, align 8
  %cmp6.i = icmp eq ptr %5, %12
  %spec.select.i = select i1 %cmp6.i, i8 1, i8 %found_unit.022.i
  %indvars.iv.next = add nuw nsw i64 %indvars.iv, 1
  %exitcond.not.i = icmp eq i64 %indvars.iv.next, %4
  br i1 %exitcond.not.i, label %for.end.loopexit.i, label %for.body.i, !llvm.loop !83

for.end.loopexit.i:                               ; preds = %for.inc.i
  %13 = and i8 %spec.select.i, 1
  %14 = icmp ne i8 %13, 0
  br label %_ZN10polynomial7manager3imp6is_negEPKNS_10polynomialE.exit

_ZN10polynomial7manager3imp6is_negEPKNS_10polynomialE.exit: ; preds = %for.body.preheader.i.i, %_ZNK10polynomial8monomial15is_power_of_twoEv.exit.i, %if.end.i, %entry, %for.end.loopexit.i
  %retval.0.i = phi i1 [ false, %entry ], [ %14, %for.end.loopexit.i ], [ false, %if.end.i ], [ false, %_ZNK10polynomial8monomial15is_power_of_twoEv.exit.i ], [ false, %for.body.preheader.i.i ]
  ret i1 %retval.0.i
}